; Function Attrs: mustprogress nounwind uwtable
define internal fastcc noundef ptr @_ZN12_GLOBAL__N_116StructAccessBase24VisitCompoundLiteralExprEPKN5clang19CompoundLiteralExprE(ptr nocapture noundef nonnull readonly align 8 dereferenceable(8) %0, ptr noundef readonly %1) unnamed_addr #0 align 2 {
  %3 = getelementptr i8, ptr %1, i64 8
  %.val = load i64, ptr %3, align 8
  %4 = and i64 %.val, -16
  %5 = inttoptr i64 %4 to ptr
  %6 = load ptr, ptr %5, align 16
  %7 = getelementptr inbounds nuw i8, ptr %6, i64 8
  %.sroa.0.0.copyload.i.i.i.i.i = load i64, ptr %7, align 8
  %8 = and i64 %.sroa.0.0.copyload.i.i.i.i.i, -16
  %9 = inttoptr i64 %8 to ptr
  %10 = load ptr, ptr %9, align 16
  %11 = getelementptr inbounds nuw i8, ptr %10, i64 16
  %12 = load i8, ptr %11, align 16
  %13 = icmp eq i8 %12, 41
  br i1 %13, label %14, label %_ZNK12_GLOBAL__N_116StructAccessBase20IsExpectedRecordDeclEPKN5clang4ExprE.exit

14:                                               ; preds = %2
  %15 = tail call i64 @_ZNK5clang4Type14getPointeeTypeEv(ptr noundef nonnull align 16 dereferenceable(24) %6) #22
  %.pre.i = and i64 %15, -16
  %.pre3.i = inttoptr i64 %.pre.i to ptr
  %.pre = load ptr, ptr %.pre3.i, align 16
  br label %_ZNK12_GLOBAL__N_116StructAccessBase20IsExpectedRecordDeclEPKN5clang4ExprE.exit

_ZNK12_GLOBAL__N_116StructAccessBase20IsExpectedRecordDeclEPKN5clang4ExprE.exit: ; preds = %2, %14
  %16 = phi ptr [ %.pre, %14 ], [ %6, %2 ]
  %17 = load ptr, ptr %0, align 8
  %18 = tail call noundef ptr @_ZNK5clang4Type15getAsRecordDeclEv(ptr noundef nonnull align 16 dereferenceable(24) %16) #22
  %19 = icmp eq ptr %17, %18
  %20 = select i1 %19, ptr %1, ptr null
  ret ptr %20
}